; Function Attrs: null_pointer_is_valid sspstrong uwtable
define hidden i32 @mapi_dissect_struct_PublicFolderIsGhosted_repl(ptr noundef %0, i32 noundef %1, ptr noundef %2, ptr noundef %3, ptr noundef %4, ptr noundef %5, i32 noundef %6, i32 %7) local_unnamed_addr #0 {
  %9 = alloca ptr, align 8
  %10 = getelementptr inbounds nuw i8, ptr %4, i64 26
  %11 = load i8, ptr %10, align 2, !range !9, !noundef !10
  store i8 1, ptr %10, align 2
  %.not = icmp eq ptr %3, null
  br i1 %.not, label %16, label %12

12:                                               ; preds = %8
  %13 = tail call ptr @proto_tree_add_item(ptr noundef nonnull %3, i32 noundef %6, ptr noundef %0, i32 noundef %1, i32 noundef -1, i32 noundef 0)
  %14 = load i32, ptr @ett_mapi_PublicFolderIsGhosted_repl, align 4
  %15 = tail call ptr @proto_item_add_subtree(ptr noundef %13, i32 noundef %14)
  br label %16

16:                                               ; preds = %12, %8
  %.026 = phi ptr [ %15, %12 ], [ null, %8 ]
  %.0 = phi ptr [ %13, %12 ], [ null, %8 ]
  %17 = load i32, ptr @hf_mapi_PublicFolderIsGhosted_repl_IsGhosted, align 4
  %18 = tail call i32 @PIDL_dissect_uint8(ptr noundef %0, i32 noundef %1, ptr noundef %2, ptr noundef %.026, ptr noundef %4, ptr noundef %5, i32 noundef %17, i32 noundef 0)
  call void @llvm.lifetime.start.p0(i64 8, ptr nonnull %9) #6
  store ptr null, ptr %9, align 8
  %.not.i.i = icmp eq ptr %.026, null
  br i1 %.not.i.i, label %mapi_dissect_element_PublicFolderIsGhosted_repl_Ghost.exit, label %19

19:                                               ; preds = %16
  %20 = load i32, ptr @ett_mapi_IsGhosted, align 4
  %21 = call ptr @proto_tree_add_subtree(ptr noundef nonnull %.026, ptr noundef %0, i32 noundef %18, i32 noundef -1, i32 noundef %20, ptr noundef nonnull %9, ptr noundef nonnull @.str.4274)
  %.pre = load ptr, ptr %9, align 8
  br label %mapi_dissect_element_PublicFolderIsGhosted_repl_Ghost.exit

mapi_dissect_element_PublicFolderIsGhosted_repl_Ghost.exit: ; preds = %16, %19
  %22 = phi ptr [ null, %16 ], [ %.pre, %19 ]
  call void @proto_item_set_len(ptr noundef %22, i32 noundef 0)
  call void @llvm.lifetime.end.p0(i64 8, ptr nonnull %9) #6
  %23 = sub i32 %18, %1
  call void @proto_item_set_len(ptr noundef %.0, i32 noundef %23)
  store i8 %11, ptr %10, align 2
  ret i32 %18
}